target datalayout = "e-m:e-p270:32:32-p271:32:32-p272:64:64-i64:64-i128:128-f80:128-n8:16:32:64-S128"
target triple = "x86_64-pc-linux-gnu"

%struct.TS_resp_ctx = type { ptr, ptr, ptr, ptr, ptr, ptr, ptr, ptr, ptr, ptr, ptr, i32, i32, ptr, ptr, ptr, ptr, ptr, ptr, ptr, ptr, ptr, ptr, ptr }
%struct.TS_status_info_st = type { ptr, ptr, ptr }
%struct.TS_resp_st = type { ptr, ptr, ptr }

@.str = private unnamed_addr constant [35 x i8] c"../openssl/crypto/ts/ts_rsp_sign.c\00", align 1
@__func__.TS_RESP_CTX_add_failure_info = private unnamed_addr constant [29 x i8] c"TS_RESP_CTX_add_failure_info\00", align 1
@.str.5 = private unnamed_addr constant [23 x i8] c"Unsupported extension.\00", align 1

; Function Attrs: nounwind uwtable
define i32 @TS_RESP_CTX_add_failure_info(ptr noundef %0, i32 noundef %1) #0 {
  %3 = alloca i32, align 4
  %4 = alloca ptr, align 8
  %5 = alloca i32, align 4
  %6 = alloca ptr, align 8
  %7 = alloca i32, align 4
  store ptr %0, ptr %4, align 8, !tbaa !10
  store i32 %1, ptr %5, align 4, !tbaa !60
  call void @llvm.lifetime.start.p0(i64 8, ptr %6) #7
  %8 = load ptr, ptr %4, align 8, !tbaa !10
  %9 = getelementptr inbounds nuw %struct.TS_resp_ctx, ptr %8, i32 0, i32 20
  %10 = load ptr, ptr %9, align 8, !tbaa !71
  %11 = getelementptr inbounds nuw %struct.TS_resp_st, ptr %10, i32 0, i32 0
  %12 = load ptr, ptr %11, align 8, !tbaa !73
  store ptr %12, ptr %6, align 8, !tbaa !65
  %13 = load ptr, ptr %6, align 8, !tbaa !65
  %14 = getelementptr inbounds nuw %struct.TS_status_info_st, ptr %13, i32 0, i32 2
  %15 = load ptr, ptr %14, align 8, !tbaa !76
  %16 = icmp eq ptr %15, null
  br i1 %16, label %17, label %23

17:                                               ; preds = %2
  %18 = call ptr @ASN1_BIT_STRING_new()
  %19 = load ptr, ptr %6, align 8, !tbaa !65
  %20 = getelementptr inbounds nuw %struct.TS_status_info_st, ptr %19, i32 0, i32 2
  store ptr %18, ptr %20, align 8, !tbaa !76
  %21 = icmp eq ptr %18, null
  br i1 %21, label %22, label %23

22:                                               ; preds = %17
  br label %32

23:                                               ; preds = %17, %2
  %24 = load ptr, ptr %6, align 8, !tbaa !65
  %25 = getelementptr inbounds nuw %struct.TS_status_info_st, ptr %24, i32 0, i32 2
  %26 = load ptr, ptr %25, align 8, !tbaa !76
  %27 = load i32, ptr %5, align 4, !tbaa !60
  %28 = call i32 @ASN1_BIT_STRING_set_bit(ptr noundef %26, i32 noundef %27, i32 noundef 1)
  %29 = icmp ne i32 %28, 0
  br i1 %29, label %31, label %30

30:                                               ; preds = %23
  br label %32

31:                                               ; preds = %23
  store i32 1, ptr %3, align 4
  store i32 1, ptr %7, align 4
  br label %33

32:                                               ; preds = %30, %22
  call void @ERR_new()
  call void @ERR_set_debug(ptr noundef @.str, i32 noundef 345, ptr noundef @__func__.TS_RESP_CTX_add_failure_info)
  call void (i32, i32, ptr, ...) @ERR_set_error(i32 noundef 47, i32 noundef 524301, ptr noundef null)
  store i32 0, ptr %3, align 4
  store i32 1, ptr %7, align 4
  br label %33

33:                                               ; preds = %32, %31
  call void @llvm.lifetime.end.p0(i64 8, ptr %6) #7
  %34 = load i32, ptr %3, align 4
  ret i32 %34
}

; Function Attrs: nounwind uwtable
define internal i32 @def_extension_cb(ptr noundef %0, ptr noundef %1, ptr noundef %2) #0 {
  %4 = alloca ptr, align 8
  %5 = alloca ptr, align 8
  %6 = alloca ptr, align 8
  store ptr %0, ptr %4, align 8, !tbaa !10
  store ptr %1, ptr %5, align 8, !tbaa !41
  store ptr %2, ptr %6, align 8, !tbaa !30
  %7 = load ptr, ptr %4, align 8, !tbaa !10
  %8 = call i32 @TS_RESP_CTX_set_status_info(ptr noundef %7, i32 noundef 2, ptr noundef @.str.5)
  %9 = load ptr, ptr %4, align 8, !tbaa !10
  %10 = call i32 @TS_RESP_CTX_add_failure_info(ptr noundef %9, i32 noundef 16)
  ret i32 0
}