; Function Attrs: nounwind uwtable
define internal noundef i32 @def_extension_cb(ptr noundef readonly captures(none) %0, ptr readnone captures(none) %1, ptr readnone captures(none) %2) #0 {
  %4 = tail call i32 @TS_RESP_CTX_set_status_info(ptr noundef %0, i32 noundef 2, ptr noundef nonnull @.str.5)
  %5 = getelementptr inbounds nuw i8, ptr %0, i64 152
  %6 = load ptr, ptr %5, align 8, !tbaa !26
  %7 = load ptr, ptr %6, align 8, !tbaa !27
  %8 = getelementptr inbounds nuw i8, ptr %7, i64 16
  %9 = load ptr, ptr %8, align 8, !tbaa !31
  %10 = icmp eq ptr %9, null
  br i1 %10, label %11, label %14

11:                                               ; preds = %3
  %12 = tail call ptr @ASN1_BIT_STRING_new() #9
  store ptr %12, ptr %8, align 8, !tbaa !31
  %13 = icmp eq ptr %12, null
  br i1 %13, label %17, label %14

14:                                               ; preds = %11, %3
  %15 = phi ptr [ %12, %11 ], [ %9, %3 ]
  %16 = tail call i32 @ASN1_BIT_STRING_set_bit(ptr noundef nonnull %15, i32 noundef 16, i32 noundef 1) #9
  %.not.i = icmp eq i32 %16, 0
  br i1 %.not.i, label %17, label %TS_RESP_CTX_add_failure_info.exit

17:                                               ; preds = %14, %11
  tail call void @ERR_new() #9
  tail call void @ERR_set_debug(ptr noundef nonnull @.str, i32 noundef 345, ptr noundef nonnull @__func__.TS_RESP_CTX_add_failure_info) #9
  tail call void (i32, i32, ptr, ...) @ERR_set_error(i32 noundef 47, i32 noundef 524301, ptr noundef null) #9
  br label %TS_RESP_CTX_add_failure_info.exit

TS_RESP_CTX_add_failure_info.exit:                ; preds = %14, %17
  ret i32 0
}